target datalayout = "e-m:e-p270:32:32-p271:32:32-p272:64:64-i64:64-i128:128-f80:128-n8:16:32:64-S128"
target triple = "x86_64-pc-linux-gnu"

%"class.Ipopt::Ma27TSolverInterface" = type <{ %"class.Ipopt::SparseSymLinearSolverInterface.base", [7 x i8], %"class.Ipopt::SmartPtr", ptr, ptr, ptr, ptr, i32, i32, i32, i8, i8, i8, i8, double, double, double, double, double, i8, i8, i8, i8, [30 x i32], [4 x i8], [5 x double], i32, [4 x i8], ptr, ptr, i32, i32, i32, [4 x i8], ptr, i8, i8, [6 x i8] }>
%"class.Ipopt::SparseSymLinearSolverInterface.base" = type { %"class.Ipopt::AlgorithmStrategyObject.base" }
%"class.Ipopt::AlgorithmStrategyObject.base" = type <{ %"class.Ipopt::ReferencedObject.base", [4 x i8], %"class.Ipopt::SmartPtr.0", %"class.Ipopt::SmartPtr.1", %"class.Ipopt::SmartPtr.2", %"class.Ipopt::SmartPtr.3", i8 }>
%"class.Ipopt::ReferencedObject.base" = type <{ ptr, i32 }>
%"class.Ipopt::SmartPtr.0" = type { ptr }
%"class.Ipopt::SmartPtr.1" = type { ptr }
%"class.Ipopt::SmartPtr.2" = type { ptr }
%"class.Ipopt::SmartPtr.3" = type { ptr }
%"class.Ipopt::SmartPtr" = type { ptr }
%"class.std::__cxx11::basic_string" = type { %"struct.std::__cxx11::basic_string<char>::_Alloc_hider", i64, %union.anon }
%"struct.std::__cxx11::basic_string<char>::_Alloc_hider" = type { ptr }
%union.anon = type { i64, [8 x i8] }
%"class.Ipopt::AlgorithmStrategyObject" = type <{ %"class.Ipopt::ReferencedObject.base", [4 x i8], %"class.Ipopt::SmartPtr.0", %"class.Ipopt::SmartPtr.1", %"class.Ipopt::SmartPtr.2", %"class.Ipopt::SmartPtr.3", i8, [7 x i8] }>
%"class.Ipopt::IpoptData" = type { %"class.Ipopt::ReferencedObject.base", %"class.Ipopt::SmartPtr.20", %"class.Ipopt::SmartPtr.20", %"class.Ipopt::SmartPtr.21", %"class.Ipopt::SmartPtr.20", i8, %"class.Ipopt::SmartPtr.20", i8, i32, double, i8, double, i8, i8, i8, double, i8, i8, double, double, i8, double, i32, i8, %"class.std::__cxx11::basic_string", double, i32, %"class.Ipopt::SmartPtr.22", %"class.Ipopt::TimingStatistics", %"class.Ipopt::SmartPtr.23", double, double, double, double }
%"class.Ipopt::SmartPtr.21" = type { ptr }
%"class.Ipopt::SmartPtr.20" = type { ptr }
%"class.Ipopt::SmartPtr.22" = type { ptr }
%"class.Ipopt::TimingStatistics" = type { %"class.Ipopt::ReferencedObject.base", [4 x i8], %"class.Ipopt::TimedTask", %"class.Ipopt::TimedTask", %"class.Ipopt::TimedTask", %"class.Ipopt::TimedTask", %"class.Ipopt::TimedTask", %"class.Ipopt::TimedTask", %"class.Ipopt::TimedTask", %"class.Ipopt::TimedTask", %"class.Ipopt::TimedTask", %"class.Ipopt::TimedTask", %"class.Ipopt::TimedTask", %"class.Ipopt::TimedTask", %"class.Ipopt::TimedTask", %"class.Ipopt::TimedTask", %"class.Ipopt::TimedTask", %"class.Ipopt::TimedTask", %"class.Ipopt::TimedTask", %"class.Ipopt::TimedTask", %"class.Ipopt::TimedTask", %"class.Ipopt::TimedTask", %"class.Ipopt::TimedTask", %"class.Ipopt::TimedTask", %"class.Ipopt::TimedTask", %"class.Ipopt::TimedTask", %"class.Ipopt::TimedTask", %"class.Ipopt::TimedTask", %"class.Ipopt::TimedTask", %"class.Ipopt::TimedTask", %"class.Ipopt::TimedTask", %"class.Ipopt::TimedTask", %"class.Ipopt::TimedTask", %"class.Ipopt::TimedTask", %"class.Ipopt::TimedTask", %"class.Ipopt::TimedTask", %"class.Ipopt::TimedTask" }
%"class.Ipopt::TimedTask" = type <{ double, double, double, double, double, double, i8, i8, i8, [5 x i8] }>
%"class.Ipopt::SmartPtr.23" = type { ptr }

; Function Attrs: mustprogress nounwind uwtable
define linkonce_odr noundef zeroext i1 @_ZN5Ipopt6IsNullINS_9IpoptDataEEEbRKNS_8SmartPtrIT_EE(ptr noundef nonnull align 8 dereferenceable(8) %0) #5 comdat {
  %2 = alloca ptr, align 8
  store ptr %0, ptr %2, align 8
  %3 = load ptr, ptr %2, align 8
  %4 = getelementptr inbounds %"class.Ipopt::SmartPtr.2", ptr %3, i32 0, i32 0
  %5 = load ptr, ptr %4, align 8
  %6 = icmp eq ptr %5, null
  ret i1 %6
}

; Function Attrs: mustprogress nounwind uwtable
define linkonce_odr noundef nonnull align 8 dereferenceable(2232) ptr @_ZNK5Ipopt8SmartPtrINS_9IpoptDataEEdeEv(ptr noundef nonnull align 8 dereferenceable(8) %0) #5 comdat align 2 {
  %2 = alloca ptr, align 8
  store ptr %0, ptr %2, align 8
  %3 = load ptr, ptr %2, align 8
  %4 = getelementptr inbounds %"class.Ipopt::SmartPtr.2", ptr %3, i32 0, i32 0
  %5 = load ptr, ptr %4, align 8
  ret ptr %5
}

; Function Attrs: mustprogress uwtable
define linkonce_odr noundef zeroext i1 @_ZN5Ipopt7IsValidINS_9IpoptDataEEEbRKNS_8SmartPtrIT_EE(ptr noundef nonnull align 8 dereferenceable(8) %0) #4 comdat {
  %2 = alloca ptr, align 8
  store ptr %0, ptr %2, align 8
  %3 = load ptr, ptr %2, align 8
  %4 = call noundef zeroext i1 @_ZN5Ipopt6IsNullINS_9IpoptDataEEEbRKNS_8SmartPtrIT_EE(ptr noundef nonnull align 8 dereferenceable(8) %3)
  %5 = xor i1 %4, true
  ret i1 %5
}

; Function Attrs: mustprogress uwtable
define linkonce_odr void @_ZN5Ipopt9TimedTask3EndEv(ptr noundef nonnull align 8 dereferenceable(51) %0) #4 comdat align 2 {
  %2 = alloca ptr, align 8
  store ptr %0, ptr %2, align 8
  %3 = load ptr, ptr %2, align 8
  %4 = getelementptr inbounds %"class.Ipopt::TimedTask", ptr %3, i32 0, i32 6
  %5 = load i8, ptr %4, align 8
  %6 = trunc i8 %5 to i1
  br i1 %6, label %8, label %7

7:                                                ; preds = %1
  br label %32

8:                                                ; preds = %1
  %9 = getelementptr inbounds %"class.Ipopt::TimedTask", ptr %3, i32 0, i32 8
  store i8 1, ptr %9, align 2
  %10 = getelementptr inbounds %"class.Ipopt::TimedTask", ptr %3, i32 0, i32 7
  store i8 0, ptr %10, align 1
  %11 = call noundef double @_ZN5Ipopt7CpuTimeEv()
  %12 = getelementptr inbounds %"class.Ipopt::TimedTask", ptr %3, i32 0, i32 0
  %13 = load double, ptr %12, align 8
  %14 = fsub double %11, %13
  %15 = getelementptr inbounds %"class.Ipopt::TimedTask", ptr %3, i32 0, i32 1
  %16 = load double, ptr %15, align 8
  %17 = fadd double %16, %14
  store double %17, ptr %15, align 8
  %18 = call noundef double @_ZN5Ipopt7SysTimeEv()
  %19 = getelementptr inbounds %"class.Ipopt::TimedTask", ptr %3, i32 0, i32 2
  %20 = load double, ptr %19, align 8
  %21 = fsub double %18, %20
  %22 = getelementptr inbounds %"class.Ipopt::TimedTask", ptr %3, i32 0, i32 3
  %23 = load double, ptr %22, align 8
  %24 = fadd double %23, %21
  store double %24, ptr %22, align 8
  %25 = call noundef double @_ZN5Ipopt13WallclockTimeEv()
  %26 = getelementptr inbounds %"class.Ipopt::TimedTask", ptr %3, i32 0, i32 4
  %27 = load double, ptr %26, align 8
  %28 = fsub double %25, %27
  %29 = getelementptr inbounds %"class.Ipopt::TimedTask", ptr %3, i32 0, i32 5
  %30 = load double, ptr %29, align 8
  %31 = fadd double %30, %28
  store double %31, ptr %29, align 8
  br label %32

32:                                               ; preds = %8, %7
  ret void
}

; Function Attrs: mustprogress uwtable
define linkonce_odr void @_ZN5Ipopt9TimedTask5StartEv(ptr noundef nonnull align 8 dereferenceable(51) %0) #4 comdat align 2 {
  %2 = alloca ptr, align 8
  store ptr %0, ptr %2, align 8
  %3 = load ptr, ptr %2, align 8
  %4 = getelementptr inbounds %"class.Ipopt::TimedTask", ptr %3, i32 0, i32 6
  %5 = load i8, ptr %4, align 8
  %6 = trunc i8 %5 to i1
  br i1 %6, label %8, label %7

7:                                                ; preds = %1
  br label %17

8:                                                ; preds = %1
  %9 = getelementptr inbounds %"class.Ipopt::TimedTask", ptr %3, i32 0, i32 8
  store i8 0, ptr %9, align 2
  %10 = getelementptr inbounds %"class.Ipopt::TimedTask", ptr %3, i32 0, i32 7
  store i8 1, ptr %10, align 1
  %11 = call noundef double @_ZN5Ipopt7CpuTimeEv()
  %12 = getelementptr inbounds %"class.Ipopt::TimedTask", ptr %3, i32 0, i32 0
  store double %11, ptr %12, align 8
  %13 = call noundef double @_ZN5Ipopt7SysTimeEv()
  %14 = getelementptr inbounds %"class.Ipopt::TimedTask", ptr %3, i32 0, i32 2
  store double %13, ptr %14, align 8
  %15 = call noundef double @_ZN5Ipopt13WallclockTimeEv()
  %16 = getelementptr inbounds %"class.Ipopt::TimedTask", ptr %3, i32 0, i32 4
  store double %15, ptr %16, align 8
  br label %17

17:                                               ; preds = %8, %7
  ret void
}

; Function Attrs: mustprogress nounwind uwtable
define linkonce_odr noundef nonnull align 8 dereferenceable(51) ptr @_ZN5Ipopt16TimingStatistics21LinearSystemBackSolveEv(ptr noundef nonnull align 8 dereferenceable(1976) %0) #5 comdat align 2 {
  %2 = alloca ptr, align 8
  store ptr %0, ptr %2, align 8
  %3 = load ptr, ptr %2, align 8
  %4 = getelementptr inbounds %"class.Ipopt::TimingStatistics", ptr %3, i32 0, i32 19
  ret ptr %4
}

; Function Attrs: mustprogress nounwind uwtable
define linkonce_odr noundef nonnull align 8 dereferenceable(1976) ptr @_ZN5Ipopt9IpoptData11TimingStatsEv(ptr noundef nonnull align 8 dereferenceable(2232) %0) #5 comdat align 2 {
  %2 = alloca ptr, align 8
  store ptr %0, ptr %2, align 8
  %3 = load ptr, ptr %2, align 8
  %4 = getelementptr inbounds %"class.Ipopt::IpoptData", ptr %3, i32 0, i32 28
  ret ptr %4
}

; Function Attrs: mustprogress uwtable
define linkonce_odr noundef nonnull align 8 dereferenceable(2232) ptr @_ZNK5Ipopt23AlgorithmStrategyObject6IpDataEv(ptr noundef nonnull align 8 dereferenceable(49) %0) #4 comdat align 2 {
  %2 = alloca ptr, align 8
  store ptr %0, ptr %2, align 8
  %3 = load ptr, ptr %2, align 8
  %4 = getelementptr inbounds %"class.Ipopt::AlgorithmStrategyObject", ptr %3, i32 0, i32 4
  %5 = call noundef nonnull align 8 dereferenceable(2232) ptr @_ZNK5Ipopt8SmartPtrINS_9IpoptDataEEdeEv(ptr noundef nonnull align 8 dereferenceable(8) %4)
  ret ptr %5
}

; Function Attrs: mustprogress uwtable
define linkonce_odr noundef zeroext i1 @_ZNK5Ipopt23AlgorithmStrategyObject10HaveIpDataEv(ptr noundef nonnull align 8 dereferenceable(49) %0) #4 comdat align 2 {
  %2 = alloca ptr, align 8
  store ptr %0, ptr %2, align 8
  %3 = load ptr, ptr %2, align 8
  %4 = getelementptr inbounds %"class.Ipopt::AlgorithmStrategyObject", ptr %3, i32 0, i32 4
  %5 = call noundef zeroext i1 @_ZN5Ipopt7IsValidINS_9IpoptDataEEEbRKNS_8SmartPtrIT_EE(ptr noundef nonnull align 8 dereferenceable(8) %4)
  ret i1 %5
}

; Function Attrs: mustprogress uwtable
define noundef i32 @_ZN5Ipopt20Ma27TSolverInterface9BacksolveEiPd(ptr noundef nonnull align 8 dereferenceable(370) %0, i32 noundef %1, ptr noundef %2) #4 align 2 {
  %4 = alloca ptr, align 8
  %5 = alloca i32, align 4
  %6 = alloca ptr, align 8
  %7 = alloca i32, align 4
  %8 = alloca ptr, align 8
  %9 = alloca ptr, align 8
  %10 = alloca [20 x i32], align 16
  %11 = alloca i32, align 4
  store ptr %0, ptr %4, align 8
  store i32 %1, ptr %5, align 4
  store ptr %2, ptr %6, align 8
  %12 = load ptr, ptr %4, align 8
  %13 = call noundef zeroext i1 @_ZNK5Ipopt23AlgorithmStrategyObject10HaveIpDataEv(ptr noundef nonnull align 8 dereferenceable(49) %12)
  br i1 %13, label %14, label %18

14:                                               ; preds = %3
  %15 = call noundef nonnull align 8 dereferenceable(2232) ptr @_ZNK5Ipopt23AlgorithmStrategyObject6IpDataEv(ptr noundef nonnull align 8 dereferenceable(49) %12)
  %16 = call noundef nonnull align 8 dereferenceable(1976) ptr @_ZN5Ipopt9IpoptData11TimingStatsEv(ptr noundef nonnull align 8 dereferenceable(2232) %15)
  %17 = call noundef nonnull align 8 dereferenceable(51) ptr @_ZN5Ipopt16TimingStatistics21LinearSystemBackSolveEv(ptr noundef nonnull align 8 dereferenceable(1976) %16)
  call void @_ZN5Ipopt9TimedTask5StartEv(ptr noundef nonnull align 8 dereferenceable(51) %17)
  br label %18

18:                                               ; preds = %14, %3
  %19 = getelementptr inbounds %"class.Ipopt::Ma27TSolverInterface", ptr %12, i32 0, i32 7
  %20 = load i32, ptr %19, align 8
  store i32 %20, ptr %7, align 4
  %21 = getelementptr inbounds %"class.Ipopt::Ma27TSolverInterface", ptr %12, i32 0, i32 31
  %22 = load i32, ptr %21, align 4
  %23 = sext i32 %22 to i64
  %24 = call { i64, i1 } @llvm.umul.with.overflow.i64(i64 %23, i64 8)
  %25 = extractvalue { i64, i1 } %24, 1
  %26 = extractvalue { i64, i1 } %24, 0
  %27 = select i1 %25, i64 -1, i64 %26
  %28 = call noalias noundef nonnull ptr @_Znam(i64 noundef %27) #15
  store ptr %28, ptr %8, align 8
  %29 = getelementptr inbounds %"class.Ipopt::Ma27TSolverInterface", ptr %12, i32 0, i32 30
  %30 = load i32, ptr %29, align 8
  %31 = sext i32 %30 to i64
  %32 = call { i64, i1 } @llvm.umul.with.overflow.i64(i64 %31, i64 4)
  %33 = extractvalue { i64, i1 } %32, 1
  %34 = extractvalue { i64, i1 } %32, 0
  %35 = select i1 %33, i64 -1, i64 %34
  %36 = call noalias noundef nonnull ptr @_Znam(i64 noundef %35) #15
  store ptr %36, ptr %9, align 8
  store i32 0, ptr %11, align 4
  br label %37

37:                                               ; preds = %64, %18
  %38 = load i32, ptr %11, align 4
  %39 = load i32, ptr %5, align 4
  %40 = icmp slt i32 %38, %39
  br i1 %40, label %41, label %67

41:                                               ; preds = %37
  %42 = getelementptr inbounds %"class.Ipopt::Ma27TSolverInterface", ptr %12, i32 0, i32 5
  %43 = load ptr, ptr %42, align 8
  %44 = getelementptr inbounds %"class.Ipopt::Ma27TSolverInterface", ptr %12, i32 0, i32 34
  %45 = load ptr, ptr %44, align 8
  %46 = getelementptr inbounds %"class.Ipopt::Ma27TSolverInterface", ptr %12, i32 0, i32 32
  %47 = getelementptr inbounds %"class.Ipopt::Ma27TSolverInterface", ptr %12, i32 0, i32 28
  %48 = load ptr, ptr %47, align 8
  %49 = getelementptr inbounds %"class.Ipopt::Ma27TSolverInterface", ptr %12, i32 0, i32 26
  %50 = load ptr, ptr %8, align 8
  %51 = getelementptr inbounds %"class.Ipopt::Ma27TSolverInterface", ptr %12, i32 0, i32 31
  %52 = load ptr, ptr %6, align 8
  %53 = load i32, ptr %11, align 4
  %54 = getelementptr inbounds %"class.Ipopt::Ma27TSolverInterface", ptr %12, i32 0, i32 7
  %55 = load i32, ptr %54, align 8
  %56 = mul nsw i32 %53, %55
  %57 = sext i32 %56 to i64
  %58 = getelementptr inbounds double, ptr %52, i64 %57
  %59 = load ptr, ptr %9, align 8
  %60 = getelementptr inbounds %"class.Ipopt::Ma27TSolverInterface", ptr %12, i32 0, i32 30
  %61 = getelementptr inbounds %"class.Ipopt::Ma27TSolverInterface", ptr %12, i32 0, i32 23
  %62 = getelementptr inbounds [30 x i32], ptr %61, i64 0, i64 0
  %63 = getelementptr inbounds [20 x i32], ptr %10, i64 0, i64 0
  call void %43(ptr noundef %7, ptr noundef %45, ptr noundef %46, ptr noundef %48, ptr noundef %49, ptr noundef %50, ptr noundef %51, ptr noundef %58, ptr noundef %59, ptr noundef %60, ptr noundef %62, ptr noundef %63)
  br label %64

64:                                               ; preds = %41
  %65 = load i32, ptr %11, align 4
  %66 = add nsw i32 %65, 1
  store i32 %66, ptr %11, align 4
  br label %37, !llvm.loop !6

67:                                               ; preds = %37
  %68 = load ptr, ptr %8, align 8
  %69 = icmp eq ptr %68, null
  br i1 %69, label %71, label %70

70:                                               ; preds = %67
  call void @_ZdaPv(ptr noundef %68) #13
  br label %71

71:                                               ; preds = %70, %67
  %72 = load ptr, ptr %9, align 8
  %73 = icmp eq ptr %72, null
  br i1 %73, label %75, label %74

74:                                               ; preds = %71
  call void @_ZdaPv(ptr noundef %72) #13
  br label %75

75:                                               ; preds = %74, %71
  %76 = call noundef zeroext i1 @_ZNK5Ipopt23AlgorithmStrategyObject10HaveIpDataEv(ptr noundef nonnull align 8 dereferenceable(49) %12)
  br i1 %76, label %77, label %81

77:                                               ; preds = %75
  %78 = call noundef nonnull align 8 dereferenceable(2232) ptr @_ZNK5Ipopt23AlgorithmStrategyObject6IpDataEv(ptr noundef nonnull align 8 dereferenceable(49) %12)
  %79 = call noundef nonnull align 8 dereferenceable(1976) ptr @_ZN5Ipopt9IpoptData11TimingStatsEv(ptr noundef nonnull align 8 dereferenceable(2232) %78)
  %80 = call noundef nonnull align 8 dereferenceable(51) ptr @_ZN5Ipopt16TimingStatistics21LinearSystemBackSolveEv(ptr noundef nonnull align 8 dereferenceable(1976) %79)
  call void @_ZN5Ipopt9TimedTask3EndEv(ptr noundef nonnull align 8 dereferenceable(51) %80)
  br label %81

81:                                               ; preds = %77, %75
  ret i32 0
}