; Function Attrs: mustprogress uwtable
define noundef i32 @_ZN5Ipopt20Ma27TSolverInterface9BacksolveEiPd(ptr noundef nonnull align 8 dereferenceable(370) %0, i32 noundef %1, ptr noundef %2) local_unnamed_addr #3 align 2 {
  %4 = alloca i32, align 4
  %5 = alloca [20 x i32], align 16
  %6 = getelementptr inbounds i8, ptr %0, i64 32
  %7 = load ptr, ptr %6, align 8
  %.not = icmp eq ptr %7, null
  br i1 %.not, label %_ZN5Ipopt9TimedTask5StartEv.exit, label %8

8:                                                ; preds = %3
  %9 = getelementptr inbounds i8, ptr %7, i64 1232
  %10 = load i8, ptr %9, align 8
  %11 = and i8 %10, 1
  %.not.i = icmp eq i8 %11, 0
  br i1 %.not.i, label %_ZN5Ipopt9TimedTask5StartEv.exit, label %12

12:                                               ; preds = %8
  %13 = getelementptr inbounds i8, ptr %7, i64 1184
  %14 = getelementptr inbounds i8, ptr %7, i64 1234
  store i8 0, ptr %14, align 2
  %15 = getelementptr inbounds i8, ptr %7, i64 1233
  store i8 1, ptr %15, align 1
  %16 = tail call noundef double @_ZN5Ipopt7CpuTimeEv()
  store double %16, ptr %13, align 8
  %17 = tail call noundef double @_ZN5Ipopt7SysTimeEv()
  %18 = getelementptr inbounds i8, ptr %7, i64 1200
  store double %17, ptr %18, align 8
  %19 = tail call noundef double @_ZN5Ipopt13WallclockTimeEv()
  %20 = getelementptr inbounds i8, ptr %7, i64 1216
  store double %19, ptr %20, align 8
  br label %_ZN5Ipopt9TimedTask5StartEv.exit

_ZN5Ipopt9TimedTask5StartEv.exit:                 ; preds = %12, %8, %3
  %21 = getelementptr inbounds i8, ptr %0, i64 96
  %22 = load i32, ptr %21, align 8
  store i32 %22, ptr %4, align 4
  %23 = getelementptr inbounds i8, ptr %0, i64 348
  %24 = load i32, ptr %23, align 4
  %25 = sext i32 %24 to i64
  %26 = icmp slt i32 %24, 0
  %27 = shl nsw i64 %25, 3
  %28 = select i1 %26, i64 -1, i64 %27
  %29 = tail call noalias noundef nonnull ptr @_Znam(i64 noundef %28) #21
  %30 = getelementptr inbounds i8, ptr %0, i64 344
  %31 = load i32, ptr %30, align 8
  %32 = sext i32 %31 to i64
  %33 = icmp slt i32 %31, 0
  %34 = shl nsw i64 %32, 2
  %35 = select i1 %33, i64 -1, i64 %34
  %36 = tail call noalias noundef nonnull ptr @_Znam(i64 noundef %35) #21
  %37 = icmp sgt i32 %1, 0
  br i1 %37, label %.lr.ph, label %._crit_edge

.lr.ph:                                           ; preds = %_ZN5Ipopt9TimedTask5StartEv.exit
  %38 = getelementptr inbounds i8, ptr %0, i64 80
  %39 = getelementptr inbounds i8, ptr %0, i64 360
  %40 = getelementptr inbounds i8, ptr %0, i64 352
  %41 = getelementptr inbounds i8, ptr %0, i64 328
  %42 = getelementptr inbounds i8, ptr %0, i64 320
  %43 = getelementptr inbounds i8, ptr %0, i64 156
  br label %44

44:                                               ; preds = %.lr.ph, %44
  %.011 = phi i32 [ 0, %.lr.ph ], [ %52, %44 ]
  %45 = load ptr, ptr %38, align 8
  %46 = load ptr, ptr %39, align 8
  %47 = load ptr, ptr %41, align 8
  %48 = load i32, ptr %21, align 8
  %49 = mul nsw i32 %48, %.011
  %50 = sext i32 %49 to i64
  %51 = getelementptr inbounds double, ptr %2, i64 %50
  call void %45(ptr noundef nonnull %4, ptr noundef %46, ptr noundef nonnull %40, ptr noundef %47, ptr noundef nonnull %42, ptr noundef nonnull %29, ptr noundef nonnull %23, ptr noundef %51, ptr noundef nonnull %36, ptr noundef nonnull %30, ptr noundef nonnull %43, ptr noundef nonnull %5)
  %52 = add nuw nsw i32 %.011, 1
  %exitcond.not = icmp eq i32 %52, %1
  br i1 %exitcond.not, label %._crit_edge, label %44, !llvm.loop !7

._crit_edge:                                      ; preds = %44, %_ZN5Ipopt9TimedTask5StartEv.exit
  call void @_ZdaPv(ptr noundef nonnull %29) #19
  call void @_ZdaPv(ptr noundef nonnull %36) #19
  %53 = load ptr, ptr %6, align 8
  %.not10 = icmp eq ptr %53, null
  br i1 %.not10, label %_ZN5Ipopt9TimedTask3EndEv.exit, label %54

54:                                               ; preds = %._crit_edge
  %55 = getelementptr inbounds i8, ptr %53, i64 1232
  %56 = load i8, ptr %55, align 8
  %57 = and i8 %56, 1
  %.not.i9 = icmp eq i8 %57, 0
  br i1 %.not.i9, label %_ZN5Ipopt9TimedTask3EndEv.exit, label %58

58:                                               ; preds = %54
  %59 = getelementptr inbounds i8, ptr %53, i64 1184
  %60 = getelementptr inbounds i8, ptr %53, i64 1234
  store i8 1, ptr %60, align 2
  %61 = getelementptr inbounds i8, ptr %53, i64 1233
  store i8 0, ptr %61, align 1
  %62 = call noundef double @_ZN5Ipopt7CpuTimeEv()
  %63 = load double, ptr %59, align 8
  %64 = fsub double %62, %63
  %65 = getelementptr inbounds i8, ptr %53, i64 1192
  %66 = load double, ptr %65, align 8
  %67 = fadd double %66, %64
  store double %67, ptr %65, align 8
  %68 = call noundef double @_ZN5Ipopt7SysTimeEv()
  %69 = getelementptr inbounds i8, ptr %53, i64 1200
  %70 = load double, ptr %69, align 8
  %71 = fsub double %68, %70
  %72 = getelementptr inbounds i8, ptr %53, i64 1208
  %73 = load double, ptr %72, align 8
  %74 = fadd double %73, %71
  store double %74, ptr %72, align 8
  %75 = call noundef double @_ZN5Ipopt13WallclockTimeEv()
  %76 = getelementptr inbounds i8, ptr %53, i64 1216
  %77 = load double, ptr %76, align 8
  %78 = fsub double %75, %77
  %79 = getelementptr inbounds i8, ptr %53, i64 1224
  %80 = load double, ptr %79, align 8
  %81 = fadd double %80, %78
  store double %81, ptr %79, align 8
  br label %_ZN5Ipopt9TimedTask3EndEv.exit

_ZN5Ipopt9TimedTask3EndEv.exit:                   ; preds = %58, %54, %._crit_edge
  ret i32 0
}